target datalayout = "e-m:e-p270:32:32-p271:32:32-p272:64:64-i64:64-i128:128-f80:128-n8:16:32:64-S128"
target triple = "x86_64-pc-linux-gnu"

@runWithErrors = dso_local global i32 0, align 4
@quieter = internal global i32 0, align 4
@stderr = external global ptr, align 8
@.str.4 = private unnamed_addr constant [17 x i8] c"SSL_write failed\00", align 1
@.str.69 = private unnamed_addr constant [19 x i8] c"wolfSSL error: %s\0A\00", align 1
@.str.70 = private unnamed_addr constant [33 x i8] c"Continuing server execution...\0A\0A\00", align 1
@.str.226 = private unnamed_addr constant [28 x i8] c"SSL_write msg error %d, %s\0A\00", align 1

; Function Attrs: nounwind uwtable
define internal void @err_sys_ex(i32 noundef %0, ptr noundef %1) #0 {
  %3 = alloca i32, align 4
  %4 = alloca ptr, align 8
  store i32 %0, ptr %3, align 4, !tbaa !9
  store ptr %1, ptr %4, align 8, !tbaa !15
  %5 = load i32, ptr %3, align 4, !tbaa !9
  %6 = icmp eq i32 %5, 1
  br i1 %6, label %7, label %25

7:                                                ; preds = %2
  br label %8

8:                                                ; preds = %7
  %9 = load i32, ptr @quieter, align 4, !tbaa !9
  %10 = icmp ne i32 %9, 0
  br i1 %10, label %15, label %11

11:                                               ; preds = %8
  %12 = load ptr, ptr @stderr, align 8, !tbaa !17
  %13 = load ptr, ptr %4, align 8, !tbaa !15
  %14 = call i32 (ptr, ptr, ...) @fprintf(ptr noundef %12, ptr noundef @.str.69, ptr noundef %13) #13
  br label %15

15:                                               ; preds = %11, %8
  br label %16

16:                                               ; preds = %15
  br label %17

17:                                               ; preds = %16
  %18 = load i32, ptr @quieter, align 4, !tbaa !9
  %19 = icmp ne i32 %18, 0
  br i1 %19, label %23, label %20

20:                                               ; preds = %17
  %21 = load ptr, ptr @stderr, align 8, !tbaa !17
  %22 = call i32 (ptr, ptr, ...) @fprintf(ptr noundef %21, ptr noundef @.str.70) #13
  br label %23

23:                                               ; preds = %20, %17
  br label %24

24:                                               ; preds = %23
  br label %27

25:                                               ; preds = %2
  %26 = load ptr, ptr %4, align 8, !tbaa !15
  call void @err_sys(ptr noundef %26) #14
  unreachable

27:                                               ; preds = %24
  ret void
}

; Function Attrs: nounwind uwtable
define internal void @ServerWrite(ptr noundef %0, ptr noundef %1, i32 noundef %2) #0 {
  %4 = alloca ptr, align 8
  %5 = alloca ptr, align 8
  %6 = alloca i32, align 4
  %7 = alloca i32, align 4
  %8 = alloca i32, align 4
  %9 = alloca i32, align 4
  %10 = alloca [80 x i8], align 16
  store ptr %0, ptr %4, align 8, !tbaa !4
  store ptr %1, ptr %5, align 8, !tbaa !15
  store i32 %2, ptr %6, align 4, !tbaa !9
  call void @llvm.lifetime.start.p0(i64 4, ptr %7) #13
  call void @llvm.lifetime.start.p0(i64 4, ptr %8) #13
  call void @llvm.lifetime.start.p0(i64 4, ptr %9) #13
  %11 = load i32, ptr %6, align 4, !tbaa !9
  store i32 %11, ptr %9, align 4, !tbaa !9
  br label %12

12:                                               ; preds = %42, %3
  store i32 0, ptr %8, align 4, !tbaa !9
  %13 = load ptr, ptr %4, align 8, !tbaa !4
  %14 = load ptr, ptr %5, align 8, !tbaa !15
  %15 = load i32, ptr %9, align 4, !tbaa !9
  %16 = call i32 @wolfSSL_write(ptr noundef %13, ptr noundef %14, i32 noundef %15)
  store i32 %16, ptr %7, align 4, !tbaa !9
  %17 = load i32, ptr %7, align 4, !tbaa !9
  %18 = icmp sle i32 %17, 0
  br i1 %18, label %19, label %22

19:                                               ; preds = %12
  %20 = load ptr, ptr %4, align 8, !tbaa !4
  %21 = call i32 @wolfSSL_get_error(ptr noundef %20, i32 noundef 0)
  store i32 %21, ptr %8, align 4, !tbaa !9
  br label %35

22:                                               ; preds = %12
  %23 = load i32, ptr %7, align 4, !tbaa !9
  %24 = load i32, ptr %6, align 4, !tbaa !9
  %25 = icmp ne i32 %23, %24
  br i1 %25, label %26, label %34

26:                                               ; preds = %22
  %27 = load i32, ptr %7, align 4, !tbaa !9
  %28 = load ptr, ptr %5, align 8, !tbaa !15
  %29 = sext i32 %27 to i64
  %30 = getelementptr inbounds i8, ptr %28, i64 %29
  store ptr %30, ptr %5, align 8, !tbaa !15
  %31 = load i32, ptr %7, align 4, !tbaa !9
  %32 = load i32, ptr %6, align 4, !tbaa !9
  %33 = sub nsw i32 %32, %31
  store i32 %33, ptr %6, align 4, !tbaa !9
  store i32 %33, ptr %9, align 4, !tbaa !9
  store i32 3, ptr %8, align 4, !tbaa !9
  br label %34

34:                                               ; preds = %26, %22
  br label %35

35:                                               ; preds = %34, %19
  br label %36

36:                                               ; preds = %35
  %37 = load i32, ptr %8, align 4, !tbaa !9
  %38 = icmp eq i32 %37, -108
  br i1 %38, label %42, label %39

39:                                               ; preds = %36
  %40 = load i32, ptr %8, align 4, !tbaa !9
  %41 = icmp eq i32 %40, 3
  br label %42

42:                                               ; preds = %39, %36
  %43 = phi i1 [ true, %36 ], [ %41, %39 ]
  br i1 %43, label %12, label %44, !llvm.loop !94

44:                                               ; preds = %42
  %45 = load i32, ptr %7, align 4, !tbaa !9
  %46 = load i32, ptr %6, align 4, !tbaa !9
  %47 = icmp ne i32 %45, %46
  br i1 %47, label %48, label %64

48:                                               ; preds = %44
  call void @llvm.lifetime.start.p0(i64 80, ptr %10) #13
  br label %49

49:                                               ; preds = %48
  %50 = load i32, ptr @quieter, align 4, !tbaa !9
  %51 = icmp ne i32 %50, 0
  br i1 %51, label %60, label %52

52:                                               ; preds = %49
  %53 = load ptr, ptr @stderr, align 8, !tbaa !17
  %54 = load i32, ptr %8, align 4, !tbaa !9
  %55 = load i32, ptr %8, align 4, !tbaa !9
  %56 = sext i32 %55 to i64
  %57 = getelementptr inbounds [80 x i8], ptr %10, i64 0, i64 0
  %58 = call ptr @wolfSSL_ERR_error_string(i64 noundef %56, ptr noundef %57)
  %59 = call i32 (ptr, ptr, ...) @fprintf(ptr noundef %53, ptr noundef @.str.226, i32 noundef %54, ptr noundef %58) #13
  br label %60

60:                                               ; preds = %52, %49
  br label %61

61:                                               ; preds = %60
  br label %62

62:                                               ; preds = %61
  %63 = load i32, ptr @runWithErrors, align 4, !tbaa !9
  call void @err_sys_ex(i32 noundef %63, ptr noundef @.str.4)
  call void @llvm.lifetime.end.p0(i64 80, ptr %10) #13
  br label %64

64:                                               ; preds = %62, %44
  call void @llvm.lifetime.end.p0(i64 4, ptr %9) #13
  call void @llvm.lifetime.end.p0(i64 4, ptr %8) #13
  call void @llvm.lifetime.end.p0(i64 4, ptr %7) #13
  ret void
}