; Function Attrs: nounwind uwtable
define internal fastcc void @ServerWrite(ptr noundef %0, ptr noundef %1, i32 noundef range(i32 22, 226) %2) unnamed_addr #0 {
  %4 = alloca [80 x i8], align 16
  br label %.backedge.outer

.backedge.outer:                                  ; preds = %.thread30, %3
  %.018.ph = phi ptr [ %9, %.thread30 ], [ %1, %3 ]
  %.0.ph = phi i32 [ %10, %.thread30 ], [ %2, %3 ]
  br label %.backedge

.backedge:                                        ; preds = %.backedge.backedge, %.backedge.outer
  %5 = tail call i32 @wolfSSL_write(ptr noundef %0, ptr noundef %.018.ph, i32 noundef %.0.ph) #21
  %6 = icmp slt i32 %5, 1
  br i1 %6, label %11, label %7

7:                                                ; preds = %.backedge
  %.not = icmp eq i32 %5, %.0.ph
  br i1 %.not, label %.thread.thread, label %.thread30

.thread30:                                        ; preds = %7
  %8 = zext nneg i32 %5 to i64
  %9 = getelementptr inbounds nuw i8, ptr %.018.ph, i64 %8
  %10 = sub nsw i32 %.0.ph, %5
  br label %.backedge.outer

11:                                               ; preds = %.backedge
  %12 = tail call i32 @wolfSSL_get_error(ptr noundef %0, i32 noundef 0) #21
  switch i32 %12, label %.thread [
    i32 -108, label %.backedge.backedge
    i32 3, label %.backedge.backedge
  ]

.backedge.backedge:                               ; preds = %11, %11
  br label %.backedge

.thread:                                          ; preds = %11
  %.not23 = icmp eq i32 %5, %.0.ph
  br i1 %.not23, label %.thread.thread, label %13

13:                                               ; preds = %.thread
  call void @llvm.lifetime.start.p0(i64 80, ptr nonnull %4) #21
  %.b = load i1, ptr @quieter, align 4
  br i1 %.b, label %19, label %14

14:                                               ; preds = %13
  %15 = load ptr, ptr @stderr, align 8, !tbaa !8
  %16 = sext i32 %12 to i64
  %17 = call ptr @wolfSSL_ERR_error_string(i64 noundef %16, ptr noundef nonnull %4) #21
  %18 = call i32 (ptr, ptr, ...) @fprintf(ptr noundef %15, ptr noundef nonnull @.str.226, i32 noundef %12, ptr noundef %17) #22
  br label %19

19:                                               ; preds = %14, %13
  %20 = load i32, ptr @runWithErrors, align 4, !tbaa !4
  %21 = icmp eq i32 %20, 1
  br i1 %21, label %22, label %29

22:                                               ; preds = %19
  %.b2.i = load i1, ptr @quieter, align 4
  br i1 %.b2.i, label %err_sys_ex.exit, label %23

23:                                               ; preds = %22
  %24 = load ptr, ptr @stderr, align 8, !tbaa !8
  %25 = call i32 (ptr, ptr, ...) @fprintf(ptr noundef %24, ptr noundef nonnull @.str.69, ptr noundef nonnull @.str.4) #22
  %.b.pr.i = load i1, ptr @quieter, align 4
  br i1 %.b.pr.i, label %err_sys_ex.exit, label %26

26:                                               ; preds = %23
  %27 = load ptr, ptr @stderr, align 8, !tbaa !8
  %28 = call i64 @fwrite(ptr nonnull @.str.70, i64 32, i64 1, ptr %27) #23
  br label %err_sys_ex.exit

29:                                               ; preds = %19
  call fastcc void @err_sys(ptr noundef nonnull @.str.4) #24
  unreachable

err_sys_ex.exit:                                  ; preds = %22, %23, %26
  call void @llvm.lifetime.end.p0(i64 80, ptr nonnull %4) #21
  br label %.thread.thread

.thread.thread:                                   ; preds = %7, %err_sys_ex.exit, %.thread
  ret void
}